target datalayout = "e-m:e-p270:32:32-p271:32:32-p272:64:64-i64:64-i128:128-f80:128-n8:16:32:64-S128"
target triple = "x86_64-pc-linux-gnu"

%struct._packet_info = type { ptr, ptr, i32, i32, %struct.nstime_t, %struct.nstime_t, %struct.nstime_t, i8, ptr, ptr, ptr, ptr, %struct._address, %struct._address, %struct._address, %struct._address, %struct._address, %struct._address, i32, ptr, i8, [3 x i8], %struct.anon, i32, i32, i32, i32, ptr, i8, ptr, ptr, i16, i16, i32, i32, i16, i32, i32, ptr, ptr, ptr, i8, i8, i16, i16, i16, i32, i16, i16, ptr, ptr, ptr, ptr, ptr, i32, i32 }
%struct.nstime_t = type { i64, i32 }
%struct._address = type { i32, i32, ptr, ptr }
%struct.anon = type { i8, [3 x i8] }

@hf_x11_reply = internal global i32 0, align 4
@hf_x11_reply_sequencenumber = internal global i32 0, align 4
@hf_x11_replylength = internal global i32 0, align 4
@hf_x11_unused = internal global i32 0, align 4
@hf_x11_glx_GetQueryObjectuivARB_reply_n = internal global i32 0, align 4
@hf_x11_glx_GetQueryObjectuivARB_reply_datum = internal global i32 0, align 4
@hf_x11_glx_GetQueryObjectuivARB_reply_data = internal global i32 0, align 4
@hf_x11_glx_GetQueryObjectuivARB_reply_data_item = internal global i32 0, align 4
@ett_x11_list_of_card32 = internal global i32 0, align 4
@.str.15167 = private unnamed_addr constant [22 x i8] c"-GetQueryObjectuivARB\00", align 1
@.str.15168 = private unnamed_addr constant [30 x i8] c"%d (glx-GetQueryObjectuivARB)\00", align 1

; Function Attrs: null_pointer_is_valid sspstrong uwtable
define internal void @listOfCard32(ptr noundef %0, ptr noundef %1, ptr noundef %2, i32 noundef %3, i32 noundef %4, i32 noundef %5, i32 noundef %6) #1 {
  %8 = alloca ptr, align 8
  %9 = alloca ptr, align 8
  %10 = alloca ptr, align 8
  %11 = alloca i32, align 4
  %12 = alloca i32, align 4
  %13 = alloca i32, align 4
  %14 = alloca i32, align 4
  %15 = alloca ptr, align 8
  %16 = alloca ptr, align 8
  store ptr %0, ptr %8, align 8
  store ptr %1, ptr %9, align 8
  store ptr %2, ptr %10, align 8
  store i32 %3, ptr %11, align 4
  store i32 %4, ptr %12, align 4
  store i32 %5, ptr %13, align 4
  store i32 %6, ptr %14, align 4
  call void @llvm.lifetime.start.p0(i64 8, ptr %15) #11
  %17 = load ptr, ptr %10, align 8
  %18 = load i32, ptr %11, align 4
  %19 = load ptr, ptr %8, align 8
  %20 = load ptr, ptr %9, align 8
  %21 = load i32, ptr %20, align 4
  %22 = load i32, ptr %13, align 4
  %23 = mul i32 %22, 4
  %24 = load i32, ptr %14, align 4
  %25 = call ptr @proto_tree_add_item(ptr noundef %17, i32 noundef %18, ptr noundef %19, i32 noundef %21, i32 noundef %23, i32 noundef %24)
  store ptr %25, ptr %15, align 8
  call void @llvm.lifetime.start.p0(i64 8, ptr %16) #11
  %26 = load ptr, ptr %15, align 8
  %27 = load i32, ptr @ett_x11_list_of_card32, align 4
  %28 = call ptr @proto_item_add_subtree(ptr noundef %26, i32 noundef %27)
  store ptr %28, ptr %16, align 8
  br label %29

29:                                               ; preds = %33, %7
  %30 = load i32, ptr %13, align 4
  %31 = add i32 %30, -1
  store i32 %31, ptr %13, align 4
  %32 = icmp ne i32 %30, 0
  br i1 %32, label %33, label %44

33:                                               ; preds = %29
  %34 = load ptr, ptr %16, align 8
  %35 = load i32, ptr %12, align 4
  %36 = load ptr, ptr %8, align 8
  %37 = load ptr, ptr %9, align 8
  %38 = load i32, ptr %37, align 4
  %39 = load i32, ptr %14, align 4
  %40 = call ptr @proto_tree_add_item(ptr noundef %34, i32 noundef %35, ptr noundef %36, i32 noundef %38, i32 noundef 4, i32 noundef %39)
  %41 = load ptr, ptr %9, align 8
  %42 = load i32, ptr %41, align 4
  %43 = add i32 %42, 4
  store i32 %43, ptr %41, align 4
  br label %29, !llvm.loop !45

44:                                               ; preds = %29
  call void @llvm.lifetime.end.p0(i64 8, ptr %16) #11
  call void @llvm.lifetime.end.p0(i64 8, ptr %15) #11
  ret void
}

; Function Attrs: null_pointer_is_valid sspstrong uwtable
define internal void @glxGetQueryObjectuivARB_Reply(ptr noundef %0, ptr noundef %1, ptr noundef %2, ptr noundef %3, i32 noundef %4) #1 {
  %6 = alloca ptr, align 8
  %7 = alloca ptr, align 8
  %8 = alloca ptr, align 8
  %9 = alloca ptr, align 8
  %10 = alloca i32, align 4
  %11 = alloca i32, align 4
  %12 = alloca i32, align 4
  store ptr %0, ptr %6, align 8
  store ptr %1, ptr %7, align 8
  store ptr %2, ptr %8, align 8
  store ptr %3, ptr %9, align 8
  store i32 %4, ptr %10, align 4
  call void @llvm.lifetime.start.p0(i64 4, ptr %11) #11
  call void @llvm.lifetime.start.p0(i64 4, ptr %12) #11
  %13 = load ptr, ptr %7, align 8
  %14 = getelementptr inbounds nuw %struct._packet_info, ptr %13, i32 0, i32 1
  %15 = load ptr, ptr %14, align 8
  call void (ptr, i32, ptr, ...) @col_append_fstr(ptr noundef %15, i32 noundef 25, ptr noundef @.str.15167)
  %16 = load ptr, ptr %6, align 8
  %17 = load ptr, ptr %8, align 8
  %18 = load ptr, ptr %9, align 8
  %19 = load i32, ptr @hf_x11_reply, align 4
  %20 = load i32, ptr %10, align 4
  %21 = call i32 @field8(ptr noundef %16, ptr noundef %17, ptr noundef %18, i32 noundef %19, i32 noundef %20)
  %22 = load ptr, ptr %9, align 8
  %23 = load i32, ptr @hf_x11_unused, align 4
  %24 = load ptr, ptr %6, align 8
  %25 = load ptr, ptr %8, align 8
  %26 = load i32, ptr %25, align 4
  %27 = call ptr @proto_tree_add_item(ptr noundef %22, i32 noundef %23, ptr noundef %24, i32 noundef %26, i32 noundef 1, i32 noundef 0)
  %28 = load ptr, ptr %8, align 8
  %29 = load i32, ptr %28, align 4
  %30 = add i32 %29, 1
  store i32 %30, ptr %28, align 4
  %31 = load ptr, ptr %6, align 8
  %32 = load ptr, ptr %8, align 8
  %33 = load i32, ptr %32, align 4
  %34 = load i32, ptr %10, align 4
  %35 = call zeroext i16 @tvb_get_uint16(ptr noundef %31, i32 noundef %33, i32 noundef %34)
  %36 = zext i16 %35 to i32
  store i32 %36, ptr %11, align 4
  %37 = load ptr, ptr %9, align 8
  %38 = load i32, ptr @hf_x11_reply_sequencenumber, align 4
  %39 = load ptr, ptr %6, align 8
  %40 = load ptr, ptr %8, align 8
  %41 = load i32, ptr %40, align 4
  %42 = load i32, ptr %11, align 4
  %43 = load i32, ptr %11, align 4
  %44 = call ptr (ptr, i32, ptr, i32, i32, i32, ptr, ...) @proto_tree_add_uint_format_value(ptr noundef %37, i32 noundef %38, ptr noundef %39, i32 noundef %41, i32 noundef 2, i32 noundef %42, ptr noundef @.str.15168, i32 noundef %43)
  %45 = load ptr, ptr %8, align 8
  %46 = load i32, ptr %45, align 4
  %47 = add i32 %46, 2
  store i32 %47, ptr %45, align 4
  %48 = load ptr, ptr %9, align 8
  %49 = load i32, ptr @hf_x11_replylength, align 4
  %50 = load ptr, ptr %6, align 8
  %51 = load ptr, ptr %8, align 8
  %52 = load i32, ptr %51, align 4
  %53 = load i32, ptr %10, align 4
  %54 = call ptr @proto_tree_add_item(ptr noundef %48, i32 noundef %49, ptr noundef %50, i32 noundef %52, i32 noundef 4, i32 noundef %53)
  %55 = load ptr, ptr %8, align 8
  %56 = load i32, ptr %55, align 4
  %57 = add i32 %56, 4
  store i32 %57, ptr %55, align 4
  %58 = load ptr, ptr %9, align 8
  %59 = load i32, ptr @hf_x11_unused, align 4
  %60 = load ptr, ptr %6, align 8
  %61 = load ptr, ptr %8, align 8
  %62 = load i32, ptr %61, align 4
  %63 = call ptr @proto_tree_add_item(ptr noundef %58, i32 noundef %59, ptr noundef %60, i32 noundef %62, i32 noundef 4, i32 noundef 0)
  %64 = load ptr, ptr %8, align 8
  %65 = load i32, ptr %64, align 4
  %66 = add i32 %65, 4
  store i32 %66, ptr %64, align 4
  %67 = load ptr, ptr %6, align 8
  %68 = load ptr, ptr %8, align 8
  %69 = load i32, ptr %68, align 4
  %70 = load i32, ptr %10, align 4
  %71 = call i32 @tvb_get_uint32(ptr noundef %67, i32 noundef %69, i32 noundef %70)
  store i32 %71, ptr %12, align 4
  %72 = load ptr, ptr %9, align 8
  %73 = load i32, ptr @hf_x11_glx_GetQueryObjectuivARB_reply_n, align 4
  %74 = load ptr, ptr %6, align 8
  %75 = load ptr, ptr %8, align 8
  %76 = load i32, ptr %75, align 4
  %77 = load i32, ptr %10, align 4
  %78 = call ptr @proto_tree_add_item(ptr noundef %72, i32 noundef %73, ptr noundef %74, i32 noundef %76, i32 noundef 4, i32 noundef %77)
  %79 = load ptr, ptr %8, align 8
  %80 = load i32, ptr %79, align 4
  %81 = add i32 %80, 4
  store i32 %81, ptr %79, align 4
  %82 = load ptr, ptr %9, align 8
  %83 = load i32, ptr @hf_x11_glx_GetQueryObjectuivARB_reply_datum, align 4
  %84 = load ptr, ptr %6, align 8
  %85 = load ptr, ptr %8, align 8
  %86 = load i32, ptr %85, align 4
  %87 = load i32, ptr %10, align 4
  %88 = call ptr @proto_tree_add_item(ptr noundef %82, i32 noundef %83, ptr noundef %84, i32 noundef %86, i32 noundef 4, i32 noundef %87)
  %89 = load ptr, ptr %8, align 8
  %90 = load i32, ptr %89, align 4
  %91 = add i32 %90, 4
  store i32 %91, ptr %89, align 4
  %92 = load ptr, ptr %9, align 8
  %93 = load i32, ptr @hf_x11_unused, align 4
  %94 = load ptr, ptr %6, align 8
  %95 = load ptr, ptr %8, align 8
  %96 = load i32, ptr %95, align 4
  %97 = call ptr @proto_tree_add_item(ptr noundef %92, i32 noundef %93, ptr noundef %94, i32 noundef %96, i32 noundef 12, i32 noundef 0)
  %98 = load ptr, ptr %8, align 8
  %99 = load i32, ptr %98, align 4
  %100 = add i32 %99, 12
  store i32 %100, ptr %98, align 4
  %101 = load ptr, ptr %6, align 8
  %102 = load ptr, ptr %8, align 8
  %103 = load ptr, ptr %9, align 8
  %104 = load i32, ptr @hf_x11_glx_GetQueryObjectuivARB_reply_data, align 4
  %105 = load i32, ptr @hf_x11_glx_GetQueryObjectuivARB_reply_data_item, align 4
  %106 = load i32, ptr %12, align 4
  %107 = load i32, ptr %10, align 4
  call void @listOfCard32(ptr noundef %101, ptr noundef %102, ptr noundef %103, i32 noundef %104, i32 noundef %105, i32 noundef %106, i32 noundef %107)
  call void @llvm.lifetime.end.p0(i64 4, ptr %12) #11
  call void @llvm.lifetime.end.p0(i64 4, ptr %11) #11
  ret void
}